target datalayout = "e-m:e-p270:32:32-p271:32:32-p272:64:64-i64:64-i128:128-f80:128-n8:16:32:64-S128"
target triple = "x86_64-pc-linux-gnu"

%"class.std::__cxx11::basic_string" = type { %"struct.std::__cxx11::basic_string<char>::_Alloc_hider", i64, %union.anon }
%"struct.std::__cxx11::basic_string<char>::_Alloc_hider" = type { ptr }
%union.anon = type { i64, [8 x i8] }
%"class.std::allocator" = type { i8 }
%"class.cv::Mat" = type { i32, i32, i32, i32, ptr, ptr, ptr, ptr, ptr, ptr, %"struct.cv::MatSize", %"struct.cv::MatStep" }
%"struct.cv::MatSize" = type { ptr }
%"struct.cv::MatStep" = type { ptr, [2 x i64] }

@.str.31 = private unnamed_addr constant [118 x i8] c"generated/home/dtcxzyw/WorkSpace/Projects/compilers/llvm-opt-benchmark/bench/opencv/opencv/modules/ts/src/ts_func.cpp\00", align 1
@.str.73 = private unnamed_addr constant [35 x i8] c"depth == CV_32F || depth == CV_64F\00", align 1
@__func__._ZN6cvtest10patchZerosERN2cv3MatEd = private unnamed_addr constant [11 x i8] c"patchZeros\00", align 1

; Function Attrs: mustprogress nounwind uwtable
define linkonce_odr hidden noundef ptr @_ZN2cv3Mat3ptrIdEEPT_i(ptr noundef nonnull align 8 dereferenceable(96) %0, i32 noundef %1) #4 comdat align 2 {
  %3 = alloca ptr, align 8
  %4 = alloca i32, align 4
  store ptr %0, ptr %3, align 8
  store i32 %1, ptr %4, align 4
  %5 = load ptr, ptr %3, align 8
  %6 = getelementptr inbounds %"class.cv::Mat", ptr %5, i32 0, i32 4
  %7 = load ptr, ptr %6, align 8
  %8 = getelementptr inbounds %"class.cv::Mat", ptr %5, i32 0, i32 11
  %9 = getelementptr inbounds %"struct.cv::MatStep", ptr %8, i32 0, i32 0
  %10 = load ptr, ptr %9, align 8
  %11 = getelementptr inbounds i64, ptr %10, i64 0
  %12 = load i64, ptr %11, align 8
  %13 = load i32, ptr %4, align 4
  %14 = sext i32 %13 to i64
  %15 = mul i64 %12, %14
  %16 = getelementptr inbounds i8, ptr %7, i64 %15
  ret ptr %16
}

; Function Attrs: mustprogress nounwind uwtable
define linkonce_odr hidden noundef ptr @_ZN2cv3Mat3ptrIfEEPT_i(ptr noundef nonnull align 8 dereferenceable(96) %0, i32 noundef %1) #4 comdat align 2 {
  %3 = alloca ptr, align 8
  %4 = alloca i32, align 4
  store ptr %0, ptr %3, align 8
  store i32 %1, ptr %4, align 4
  %5 = load ptr, ptr %3, align 8
  %6 = getelementptr inbounds %"class.cv::Mat", ptr %5, i32 0, i32 4
  %7 = load ptr, ptr %6, align 8
  %8 = getelementptr inbounds %"class.cv::Mat", ptr %5, i32 0, i32 11
  %9 = getelementptr inbounds %"struct.cv::MatStep", ptr %8, i32 0, i32 0
  %10 = load ptr, ptr %9, align 8
  %11 = getelementptr inbounds i64, ptr %10, i64 0
  %12 = load i64, ptr %11, align 8
  %13 = load i32, ptr %4, align 4
  %14 = sext i32 %13 to i64
  %15 = mul i64 %12, %14
  %16 = getelementptr inbounds i8, ptr %7, i64 %15
  ret ptr %16
}

; Function Attrs: mustprogress nounwind uwtable
define linkonce_odr hidden noundef i32 @_ZNK2cv3Mat5depthEv(ptr noundef nonnull align 8 dereferenceable(96) %0) #4 comdat align 2 {
  %2 = alloca ptr, align 8
  store ptr %0, ptr %2, align 8
  %3 = load ptr, ptr %2, align 8
  %4 = getelementptr inbounds %"class.cv::Mat", ptr %3, i32 0, i32 0
  %5 = load i32, ptr %4, align 8
  %6 = and i32 %5, 7
  ret i32 %6
}

; Function Attrs: mustprogress nounwind uwtable
define linkonce_odr hidden noundef i32 @_ZNK2cv3Mat8channelsEv(ptr noundef nonnull align 8 dereferenceable(96) %0) #4 comdat align 2 {
  %2 = alloca ptr, align 8
  store ptr %0, ptr %2, align 8
  %3 = load ptr, ptr %2, align 8
  %4 = getelementptr inbounds %"class.cv::Mat", ptr %3, i32 0, i32 0
  %5 = load i32, ptr %4, align 8
  %6 = and i32 %5, 4088
  %7 = ashr i32 %6, 3
  %8 = add nsw i32 %7, 1
  ret i32 %8
}

; Function Attrs: mustprogress uwtable
define hidden void @_ZN6cvtest10patchZerosERN2cv3MatEd(ptr noundef nonnull align 8 dereferenceable(96) %0, double noundef %1) #6 personality ptr @__gxx_personality_v0 {
  %3 = alloca ptr, align 8
  %4 = alloca double, align 8
  %5 = alloca i32, align 4
  %6 = alloca i32, align 4
  %7 = alloca i32, align 4
  %8 = alloca %"class.std::__cxx11::basic_string", align 8
  %9 = alloca %"class.std::allocator", align 1
  %10 = alloca ptr, align 8
  %11 = alloca i32, align 4
  %12 = alloca i32, align 4
  %13 = alloca ptr, align 8
  %14 = alloca ptr, align 8
  store ptr %0, ptr %3, align 8
  store double %1, ptr %4, align 8
  %15 = load ptr, ptr %3, align 8
  %16 = getelementptr inbounds %"class.cv::Mat", ptr %15, i32 0, i32 3
  %17 = load i32, ptr %16, align 4
  %18 = load ptr, ptr %3, align 8
  %19 = call noundef i32 @_ZNK2cv3Mat8channelsEv(ptr noundef nonnull align 8 dereferenceable(96) %18)
  %20 = mul nsw i32 %17, %19
  store i32 %20, ptr %6, align 4
  %21 = load ptr, ptr %3, align 8
  %22 = call noundef i32 @_ZNK2cv3Mat5depthEv(ptr noundef nonnull align 8 dereferenceable(96) %21)
  store i32 %22, ptr %7, align 4
  br label %23

23:                                               ; preds = %2
  %24 = load i32, ptr %7, align 4
  %25 = icmp eq i32 %24, 5
  br i1 %25, label %29, label %26

26:                                               ; preds = %23
  %27 = load i32, ptr %7, align 4
  %28 = icmp eq i32 %27, 6
  br i1 %28, label %29, label %30

29:                                               ; preds = %26, %23
  br label %42

30:                                               ; preds = %26
  call void @_ZNSaIcEC1Ev(ptr noundef nonnull align 1 dereferenceable(1) %9) #3
  invoke void @_ZNSt7__cxx1112basic_stringIcSt11char_traitsIcESaIcEEC1EPKcRKS3_(ptr noundef nonnull align 8 dereferenceable(32) %8, ptr noundef @.str.73, ptr noundef nonnull align 1 dereferenceable(1) %9)
          to label %31 unwind label %33

31:                                               ; preds = %30
  invoke void @_ZN2cv5errorEiRKNSt7__cxx1112basic_stringIcSt11char_traitsIcESaIcEEEPKcS9_i(i32 noundef -215, ptr noundef nonnull align 8 dereferenceable(32) %8, ptr noundef @__func__._ZN6cvtest10patchZerosERN2cv3MatEd, ptr noundef @.str.31, i32 noundef 2733) #18
          to label %32 unwind label %37

32:                                               ; preds = %31
  unreachable

33:                                               ; preds = %30
  %34 = landingpad { ptr, i32 }
          cleanup
  %35 = extractvalue { ptr, i32 } %34, 0
  store ptr %35, ptr %10, align 8
  %36 = extractvalue { ptr, i32 } %34, 1
  store i32 %36, ptr %11, align 4
  br label %41

37:                                               ; preds = %31
  %38 = landingpad { ptr, i32 }
          cleanup
  %39 = extractvalue { ptr, i32 } %38, 0
  store ptr %39, ptr %10, align 8
  %40 = extractvalue { ptr, i32 } %38, 1
  store i32 %40, ptr %11, align 4
  call void @_ZNSt7__cxx1112basic_stringIcSt11char_traitsIcESaIcEED1Ev(ptr noundef nonnull align 8 dereferenceable(32) %8) #3
  br label %41

41:                                               ; preds = %37, %33
  call void @_ZNSaIcED1Ev(ptr noundef nonnull align 1 dereferenceable(1) %9) #3
  br label %117

42:                                               ; preds = %29
  br label %43

43:                                               ; preds = %42
  store i32 0, ptr %12, align 4
  br label %44

44:                                               ; preds = %113, %43
  %45 = load i32, ptr %12, align 4
  %46 = load ptr, ptr %3, align 8
  %47 = getelementptr inbounds %"class.cv::Mat", ptr %46, i32 0, i32 2
  %48 = load i32, ptr %47, align 8
  %49 = icmp slt i32 %45, %48
  br i1 %49, label %50, label %116

50:                                               ; preds = %44
  %51 = load i32, ptr %7, align 4
  %52 = icmp eq i32 %51, 5
  br i1 %52, label %53, label %83

53:                                               ; preds = %50
  %54 = load ptr, ptr %3, align 8
  %55 = load i32, ptr %12, align 4
  %56 = call noundef ptr @_ZN2cv3Mat3ptrIfEEPT_i(ptr noundef nonnull align 8 dereferenceable(96) %54, i32 noundef %55)
  store ptr %56, ptr %13, align 8
  store i32 0, ptr %5, align 4
  br label %57

57:                                               ; preds = %79, %53
  %58 = load i32, ptr %5, align 4
  %59 = load i32, ptr %6, align 4
  %60 = icmp slt i32 %58, %59
  br i1 %60, label %61, label %82

61:                                               ; preds = %57
  %62 = load ptr, ptr %13, align 8
  %63 = load i32, ptr %5, align 4
  %64 = sext i32 %63 to i64
  %65 = getelementptr inbounds float, ptr %62, i64 %64
  %66 = load float, ptr %65, align 4
  %67 = fpext float %66 to double
  %68 = call double @llvm.fabs.f64(double %67)
  %69 = load double, ptr %4, align 8
  %70 = fcmp olt double %68, %69
  br i1 %70, label %71, label %78

71:                                               ; preds = %61
  %72 = load ptr, ptr %13, align 8
  %73 = load i32, ptr %5, align 4
  %74 = sext i32 %73 to i64
  %75 = getelementptr inbounds float, ptr %72, i64 %74
  %76 = load float, ptr %75, align 4
  %77 = fadd float %76, 1.000000e+00
  store float %77, ptr %75, align 4
  br label %78

78:                                               ; preds = %71, %61
  br label %79

79:                                               ; preds = %78
  %80 = load i32, ptr %5, align 4
  %81 = add nsw i32 %80, 1
  store i32 %81, ptr %5, align 4
  br label %57, !llvm.loop !487

82:                                               ; preds = %57
  br label %112

83:                                               ; preds = %50
  %84 = load ptr, ptr %3, align 8
  %85 = load i32, ptr %12, align 4
  %86 = call noundef ptr @_ZN2cv3Mat3ptrIdEEPT_i(ptr noundef nonnull align 8 dereferenceable(96) %84, i32 noundef %85)
  store ptr %86, ptr %14, align 8
  store i32 0, ptr %5, align 4
  br label %87

87:                                               ; preds = %108, %83
  %88 = load i32, ptr %5, align 4
  %89 = load i32, ptr %6, align 4
  %90 = icmp slt i32 %88, %89
  br i1 %90, label %91, label %111

91:                                               ; preds = %87
  %92 = load ptr, ptr %14, align 8
  %93 = load i32, ptr %5, align 4
  %94 = sext i32 %93 to i64
  %95 = getelementptr inbounds double, ptr %92, i64 %94
  %96 = load double, ptr %95, align 8
  %97 = call double @llvm.fabs.f64(double %96)
  %98 = load double, ptr %4, align 8
  %99 = fcmp olt double %97, %98
  br i1 %99, label %100, label %107

100:                                              ; preds = %91
  %101 = load ptr, ptr %14, align 8
  %102 = load i32, ptr %5, align 4
  %103 = sext i32 %102 to i64
  %104 = getelementptr inbounds double, ptr %101, i64 %103
  %105 = load double, ptr %104, align 8
  %106 = fadd double %105, 1.000000e+00
  store double %106, ptr %104, align 8
  br label %107

107:                                              ; preds = %100, %91
  br label %108

108:                                              ; preds = %107
  %109 = load i32, ptr %5, align 4
  %110 = add nsw i32 %109, 1
  store i32 %110, ptr %5, align 4
  br label %87, !llvm.loop !488

111:                                              ; preds = %87
  br label %112

112:                                              ; preds = %111, %82
  br label %113

113:                                              ; preds = %112
  %114 = load i32, ptr %12, align 4
  %115 = add nsw i32 %114, 1
  store i32 %115, ptr %12, align 4
  br label %44, !llvm.loop !489

116:                                              ; preds = %44
  ret void

117:                                              ; preds = %41
  %118 = load ptr, ptr %10, align 8
  %119 = load i32, ptr %11, align 4
  %120 = insertvalue { ptr, i32 } poison, ptr %118, 0
  %121 = insertvalue { ptr, i32 } %120, i32 %119, 1
  resume { ptr, i32 } %121
}