; Function Attrs: mustprogress uwtable
define hidden void @_ZN6cvtest10patchZerosERN2cv3MatEd(ptr nocapture noundef nonnull readonly align 8 dereferenceable(96) %0, double noundef %1) local_unnamed_addr #6 personality ptr @__gxx_personality_v0 {
  %3 = alloca %"class.std::__cxx11::basic_string", align 8
  %4 = alloca %"class.std::allocator", align 1
  %5 = getelementptr inbounds i8, ptr %0, i64 12
  %6 = load i32, ptr %5, align 4
  %7 = load i32, ptr %0, align 8
  %8 = lshr i32 %7, 3
  %9 = and i32 %8, 511
  %10 = add nuw nsw i32 %9, 1
  %11 = mul i32 %10, %6
  %12 = and i32 %7, 7
  %13 = icmp eq i32 %12, 5
  %14 = add nsw i32 %12, -5
  %or.cond = icmp ult i32 %14, 2
  br i1 %or.cond, label %.preheader, label %54

.preheader:                                       ; preds = %2
  %15 = getelementptr inbounds i8, ptr %0, i64 8
  %16 = load i32, ptr %15, align 8
  %17 = icmp sgt i32 %16, 0
  br i1 %17, label %.lr.ph40, label %._crit_edge

.lr.ph40:                                         ; preds = %.preheader
  %18 = getelementptr inbounds i8, ptr %0, i64 16
  %19 = getelementptr inbounds i8, ptr %0, i64 72
  %20 = icmp sgt i32 %11, 0
  br i1 %13, label %.lr.ph40.split.us, label %.lr.ph40.split

.lr.ph40.split.us:                                ; preds = %.lr.ph40
  br i1 %20, label %.lr.ph38.us.us.preheader, label %._crit_edge

.lr.ph38.us.us.preheader:                         ; preds = %.lr.ph40.split.us
  %wide.trip.count52 = zext nneg i32 %11 to i64
  br label %.lr.ph38.us.us

.lr.ph38.us.us:                                   ; preds = %.lr.ph38.us.us.preheader, %..loopexit_crit_edge.us.us
  %indvars.iv54 = phi i64 [ 0, %.lr.ph38.us.us.preheader ], [ %indvars.iv.next55, %..loopexit_crit_edge.us.us ]
  %21 = load ptr, ptr %18, align 8
  %22 = load ptr, ptr %19, align 8
  %23 = load i64, ptr %22, align 8
  %24 = mul i64 %23, %indvars.iv54
  %25 = getelementptr inbounds i8, ptr %21, i64 %24
  br label %26

26:                                               ; preds = %.lr.ph38.us.us, %34
  %indvars.iv49 = phi i64 [ 0, %.lr.ph38.us.us ], [ %indvars.iv.next50, %34 ]
  %27 = getelementptr inbounds float, ptr %25, i64 %indvars.iv49
  %28 = load float, ptr %27, align 4
  %29 = tail call float @llvm.fabs.f32(float %28)
  %30 = fpext float %29 to double
  %31 = fcmp olt double %30, %1
  br i1 %31, label %32, label %34

32:                                               ; preds = %26
  %33 = fadd float %28, 1.000000e+00
  store float %33, ptr %27, align 4
  br label %34

34:                                               ; preds = %32, %26
  %indvars.iv.next50 = add nuw nsw i64 %indvars.iv49, 1
  %exitcond53.not = icmp eq i64 %indvars.iv.next50, %wide.trip.count52
  br i1 %exitcond53.not, label %..loopexit_crit_edge.us.us, label %26, !llvm.loop !712

..loopexit_crit_edge.us.us:                       ; preds = %34
  %indvars.iv.next55 = add nuw nsw i64 %indvars.iv54, 1
  %35 = load i32, ptr %15, align 8
  %36 = sext i32 %35 to i64
  %37 = icmp slt i64 %indvars.iv.next55, %36
  br i1 %37, label %.lr.ph38.us.us, label %._crit_edge, !llvm.loop !713

.lr.ph40.split:                                   ; preds = %.lr.ph40
  br i1 %20, label %.lr.ph.us.preheader, label %._crit_edge

.lr.ph.us.preheader:                              ; preds = %.lr.ph40.split
  %wide.trip.count = zext nneg i32 %11 to i64
  br label %.lr.ph.us

.lr.ph.us:                                        ; preds = %.lr.ph.us.preheader, %..loopexit35_crit_edge.us
  %indvars.iv46 = phi i64 [ 0, %.lr.ph.us.preheader ], [ %indvars.iv.next47, %..loopexit35_crit_edge.us ]
  %38 = load ptr, ptr %18, align 8
  %39 = load ptr, ptr %19, align 8
  %40 = load i64, ptr %39, align 8
  %41 = mul i64 %40, %indvars.iv46
  %42 = getelementptr inbounds i8, ptr %38, i64 %41
  br label %43

43:                                               ; preds = %.lr.ph.us, %50
  %indvars.iv = phi i64 [ 0, %.lr.ph.us ], [ %indvars.iv.next, %50 ]
  %44 = getelementptr inbounds double, ptr %42, i64 %indvars.iv
  %45 = load double, ptr %44, align 8
  %46 = tail call double @llvm.fabs.f64(double %45)
  %47 = fcmp olt double %46, %1
  br i1 %47, label %48, label %50

48:                                               ; preds = %43
  %49 = fadd double %45, 1.000000e+00
  store double %49, ptr %44, align 8
  br label %50

50:                                               ; preds = %48, %43
  %indvars.iv.next = add nuw nsw i64 %indvars.iv, 1
  %exitcond.not = icmp eq i64 %indvars.iv.next, %wide.trip.count
  br i1 %exitcond.not, label %..loopexit35_crit_edge.us, label %43, !llvm.loop !714

..loopexit35_crit_edge.us:                        ; preds = %50
  %indvars.iv.next47 = add nuw nsw i64 %indvars.iv46, 1
  %51 = load i32, ptr %15, align 8
  %52 = sext i32 %51 to i64
  %53 = icmp slt i64 %indvars.iv.next47, %52
  br i1 %53, label %.lr.ph.us, label %._crit_edge, !llvm.loop !713

54:                                               ; preds = %2
  call void @_ZNSaIcEC1Ev(ptr noundef nonnull align 1 dereferenceable(1) %4) #28
  invoke void @_ZNSt7__cxx1112basic_stringIcSt11char_traitsIcESaIcEEC1EPKcRKS3_(ptr noundef nonnull align 8 dereferenceable(32) %3, ptr noundef nonnull @.str.73, ptr noundef nonnull align 1 dereferenceable(1) %4)
          to label %55 unwind label %57

55:                                               ; preds = %54
  invoke void @_ZN2cv5errorEiRKNSt7__cxx1112basic_stringIcSt11char_traitsIcESaIcEEEPKcS9_i(i32 noundef -215, ptr noundef nonnull align 8 dereferenceable(32) %3, ptr noundef nonnull @__func__._ZN6cvtest10patchZerosERN2cv3MatEd, ptr noundef nonnull @.str.31, i32 noundef 2733) #29
          to label %56 unwind label %59

56:                                               ; preds = %55
  unreachable

57:                                               ; preds = %54
  %58 = landingpad { ptr, i32 }
          cleanup
  br label %61

59:                                               ; preds = %55
  %60 = landingpad { ptr, i32 }
          cleanup
  call void @_ZNSt7__cxx1112basic_stringIcSt11char_traitsIcESaIcEED1Ev(ptr noundef nonnull align 8 dereferenceable(32) %3) #28
  br label %61

61:                                               ; preds = %59, %57
  %.pn = phi { ptr, i32 } [ %60, %59 ], [ %58, %57 ]
  call void @_ZNSaIcED1Ev(ptr noundef nonnull align 1 dereferenceable(1) %4) #28
  resume { ptr, i32 } %.pn

._crit_edge:                                      ; preds = %..loopexit35_crit_edge.us, %..loopexit_crit_edge.us.us, %.lr.ph40.split, %.lr.ph40.split.us, %.preheader
  ret void
}